target datalayout = "e-m:e-p270:32:32-p271:32:32-p272:64:64-i64:64-i128:128-f80:128-n8:16:32:64-S128"
target triple = "x86_64-pc-linux-gnu"

%struct.ProbContext = type { [4 x [9 x i8]], [10 x [9 x i8]], [4 x [2 x i8]], [7 x [3 x i8]], [4 x i8], [5 x i8], [5 x [2 x i8]], [5 x i8], [2 x [3 x i8]], [2 x [2 x i8]], [2 x i8], [3 x i8], [3 x i8], [2 x %struct.anon.8], [4 x [4 x [3 x i8]]] }
%struct.anon.8 = type { i8, [10 x i8], i8, [10 x i8], [2 x [3 x i8]], [3 x i8], i8, i8 }
%struct.AVCodecContext = type { ptr, i32, i32, ptr, i32, i32, ptr, ptr, ptr, i64, i32, i32, ptr, i32, %struct.AVRational, %struct.AVRational, %struct.AVRational, i32, i32, i32, i32, i32, %struct.AVRational, i32, i32, i32, i32, i32, i32, i32, i32, i32, i32, i32, ptr, ptr, i32, float, float, float, float, float, float, float, float, float, i32, i32, i32, i32, i32, i32, i32, i32, i32, i32, i32, i32, ptr, ptr, ptr, i32, i32, i32, i32, i32, i32, i32, i32, i32, i32, %struct.AVChannelLayout, i32, i32, i32, i32, i32, i32, i32, i32, ptr, i32, i32, i32, float, float, i32, i32, i32, i32, i32, ptr, i64, i64, float, float, i32, i32, ptr, ptr, i32, i32, i32, i32, i32, ptr, ptr, ptr, ptr, i32, i32, [8 x i64], i32, i32, i32, i32, i32, i32, i32, ptr, ptr, i32, i32, i32, i32, i32, i32, i32, i32, i32, i32, ptr, ptr, i32, i32, ptr, ptr, ptr, ptr, i32, i32, i64, i32, i32, i64, ptr, i64, ptr, i32, ptr, i32 }
%struct.AVRational = type { i32, i32 }
%struct.AVChannelLayout = type { i32, i32, %union.anon.0, ptr }
%union.anon.0 = type { i64 }
%struct.VP9Context = type { %struct.VP9SharedContext, ptr, %struct.VP9DSPContext, %struct.VideoDSPContext, %struct.GetBitContext, %struct.VPXRangeCoder, i32, i32, %union.pthread_mutex_t, %union.pthread_cond_t, ptr, i32, i8, i8, i8, i8, i8, i8, i32, i32, i32, i32, i32, i32, i32, i32, i32, [8 x %struct.ProgressFrame], %struct.anon.6, [4 x %struct.anon.7], %struct.anon.9, ptr, ptr, ptr, [2 x ptr], ptr, ptr, ptr, ptr, ptr, ptr, ptr, ptr, [3 x ptr], ptr, i32, [3 x [2 x i16]], [3 x [2 x i8]], ptr, i32 }
%struct.VP9SharedContext = type { %struct.VP9BitstreamHeader, [8 x %struct.ProgressFrame], [4 x %struct.VP9Frame] }
%struct.VP9BitstreamHeader = type { i8, i8, i8, i8, i8, i8, i8, i8, i8, i32, i8, i8, i8, i8, i8, [3 x i8], [3 x i8], i8, [2 x i8], %struct.anon, %struct.anon.1, i8, i8, i8, i8, i8, %struct.anon.2, i32, i32, %struct.anon.4, i32, i32 }
%struct.anon = type { i8, i8 }
%struct.anon.1 = type { i8, i8, [2 x i8], [4 x i8] }
%struct.anon.2 = type { i8, i8, i8, i8, [7 x i8], [3 x i8], [8 x %struct.anon.3] }
%struct.anon.3 = type { i8, i8, i8, i8, i8, i16, i8, [2 x [2 x i16]], [4 x [2 x i8]] }
%struct.anon.4 = type { i32, i32, i32, i32 }
%struct.VP9Frame = type { %struct.ProgressFrame, ptr, ptr, ptr, i32, ptr }
%struct.ProgressFrame = type { ptr, ptr }
%struct.VP9DSPContext = type { [4 x [15 x ptr]], [5 x [4 x ptr]], [3 x [2 x ptr]], [2 x ptr], [2 x [2 x [2 x ptr]]], [5 x [4 x [2 x [2 x [2 x ptr]]]]], [5 x [4 x [2 x ptr]]] }
%struct.VideoDSPContext = type { ptr, ptr }
%struct.GetBitContext = type { ptr, ptr, i32, i32, i32 }
%struct.VPXRangeCoder = type { i32, i32, ptr, ptr, i32, i32 }
%union.pthread_mutex_t = type { %struct.__pthread_mutex_s }
%struct.__pthread_mutex_s = type { i32, i32, i32, i32, i32, i16, i16, %struct.__pthread_internal_list }
%struct.__pthread_internal_list = type { ptr, ptr }
%union.pthread_cond_t = type { %struct.__pthread_cond_s }
%struct.__pthread_cond_s = type { %union.__atomic_wide_counter, %union.__atomic_wide_counter, [2 x i32], [2 x i32], i32, i32, [2 x i32] }
%union.__atomic_wide_counter = type { i64 }
%struct.anon.6 = type { [64 x i8], [64 x i8] }
%struct.anon.7 = type { %struct.ProbContext, [4 x [2 x [2 x [6 x [6 x [3 x i8]]]]]] }
%struct.anon.9 = type { %struct.ProbContext, [4 x [2 x [2 x [6 x [6 x [11 x i8]]]]]] }
%struct.VP9TileData = type { ptr, ptr, ptr, i32, i32, i32, i32, [3 x ptr], i64, i64, ptr, ptr, i32, %struct.anon.10, [4 x i8], [38880 x i8], [16 x i8], [16 x i8], [16 x [2 x %struct.VP9mv]], [2 x [16 x i8]], [8 x i8], [8 x i8], [8 x i8], [8 x i8], [8 x i8], [8 x i8], [8 x i8], [8 x i8], [8192 x i8], [2 x [8192 x i8]], %struct.anon.12, %struct.anon.12, ptr, ptr, [2 x ptr], [2 x ptr], ptr, [2 x ptr], ptr, [2 x ptr], i32, ptr, i32, [12 x i8] }
%struct.anon.10 = type { [4 x [10 x i32]], [10 x [10 x i32]], [4 x [3 x i32]], [7 x [4 x i32]], [4 x [2 x i32]], [5 x [2 x i32]], [5 x [2 x [2 x i32]]], [5 x [2 x i32]], [2 x [4 x i32]], [2 x [3 x i32]], [2 x [2 x i32]], [3 x [2 x i32]], [4 x i32], [2 x %struct.anon.11], [4 x [4 x [4 x i32]]], [4 x [2 x [2 x [6 x [6 x [3 x i32]]]]]], [4 x [2 x [2 x [6 x [6 x [2 x i32]]]]]] }
%struct.anon.11 = type { [2 x i32], [11 x i32], [2 x i32], [10 x [2 x i32]], [2 x [4 x i32]], [4 x i32], [2 x i32], [2 x i32] }
%struct.VP9mv = type { i16, i16 }
%struct.anon.12 = type { i32, i32 }

@vp9_context_offsets = internal constant [5 x i32] [i32 3216, i32 3120, i32 0, i32 3160, i32 0], align 16

; Function Attrs: nounwind uwtable
define internal void @vp9_tile_data_free(ptr noundef %0) #0 {
  %2 = alloca ptr, align 8
  store ptr %0, ptr %2, align 8, !tbaa !274
  %3 = load ptr, ptr %2, align 8, !tbaa !274
  %4 = getelementptr inbounds nuw %struct.VP9TileData, ptr %3, i32 0, i32 10
  call void @av_freep(ptr noundef %4)
  %5 = load ptr, ptr %2, align 8, !tbaa !274
  %6 = getelementptr inbounds nuw %struct.VP9TileData, ptr %5, i32 0, i32 32
  call void @av_freep(ptr noundef %6)
  %7 = load ptr, ptr %2, align 8, !tbaa !274
  %8 = getelementptr inbounds nuw %struct.VP9TileData, ptr %7, i32 0, i32 41
  call void @av_freep(ptr noundef %8)
  ret void
}

; Function Attrs: nounwind uwtable
define internal void @free_buffers(ptr noundef %0) #0 {
  %2 = alloca ptr, align 8
  %3 = alloca i32, align 4
  store ptr %0, ptr %2, align 8, !tbaa !29
  call void @llvm.lifetime.start.p0(i64 4, ptr %3) #11
  %4 = load ptr, ptr %2, align 8, !tbaa !29
  %5 = getelementptr inbounds nuw %struct.VP9Context, ptr %4, i32 0, i32 43
  %6 = getelementptr inbounds [3 x ptr], ptr %5, i64 0, i64 0
  call void @av_freep(ptr noundef %6)
  store i32 0, ptr %3, align 4, !tbaa !31
  br label %7

7:                                                ; preds = %20, %1
  %8 = load i32, ptr %3, align 4, !tbaa !31
  %9 = load ptr, ptr %2, align 8, !tbaa !29
  %10 = getelementptr inbounds nuw %struct.VP9Context, ptr %9, i32 0, i32 7
  %11 = load i32, ptr %10, align 4, !tbaa !140
  %12 = icmp slt i32 %8, %11
  br i1 %12, label %13, label %23

13:                                               ; preds = %7
  %14 = load ptr, ptr %2, align 8, !tbaa !29
  %15 = getelementptr inbounds nuw %struct.VP9Context, ptr %14, i32 0, i32 1
  %16 = load ptr, ptr %15, align 8, !tbaa !141
  %17 = load i32, ptr %3, align 4, !tbaa !31
  %18 = sext i32 %17 to i64
  %19 = getelementptr inbounds %struct.VP9TileData, ptr %16, i64 %18
  call void @vp9_tile_data_free(ptr noundef %19)
  br label %20

20:                                               ; preds = %13
  %21 = load i32, ptr %3, align 4, !tbaa !31
  %22 = add nsw i32 %21, 1
  store i32 %22, ptr %3, align 4, !tbaa !31
  br label %7, !llvm.loop !346

23:                                               ; preds = %7
  call void @llvm.lifetime.end.p0(i64 4, ptr %3) #11
  ret void
}

; Function Attrs: inlinehint nounwind uwtable
define internal void @av_refstruct_pool_uninit(ptr noundef %0) #5 {
  %2 = alloca ptr, align 8
  store ptr %0, ptr %2, align 8, !tbaa !334
  %3 = load ptr, ptr %2, align 8, !tbaa !334
  call void @av_refstruct_unref(ptr noundef %3)
  ret void
}

; Function Attrs: cold nounwind optsize uwtable
define internal i32 @vp9_decode_free(ptr noundef %0) #1 {
  %2 = alloca ptr, align 8
  %3 = alloca ptr, align 8
  %4 = alloca i32, align 4
  %5 = alloca i32, align 4
  store ptr %0, ptr %2, align 8, !tbaa !4
  call void @llvm.lifetime.start.p0(i64 8, ptr %3) #11
  %6 = load ptr, ptr %2, align 8, !tbaa !4
  %7 = getelementptr inbounds nuw %struct.AVCodecContext, ptr %6, i32 0, i32 6
  %8 = load ptr, ptr %7, align 8, !tbaa !9
  store ptr %8, ptr %3, align 8, !tbaa !29
  call void @llvm.lifetime.start.p0(i64 4, ptr %4) #11
  call void @llvm.lifetime.start.p0(i64 4, ptr %5) #11
  store i32 0, ptr %5, align 4, !tbaa !31
  br label %9

9:                                                ; preds = %20, %1
  %10 = load i32, ptr %5, align 4, !tbaa !31
  %11 = icmp slt i32 %10, 3
  br i1 %11, label %13, label %12

12:                                               ; preds = %9
  call void @llvm.lifetime.end.p0(i64 4, ptr %5) #11
  br label %23

13:                                               ; preds = %9
  %14 = load ptr, ptr %3, align 8, !tbaa !29
  %15 = getelementptr inbounds nuw %struct.VP9Context, ptr %14, i32 0, i32 0
  %16 = getelementptr inbounds nuw %struct.VP9SharedContext, ptr %15, i32 0, i32 2
  %17 = load i32, ptr %5, align 4, !tbaa !31
  %18 = sext i32 %17 to i64
  %19 = getelementptr inbounds [4 x %struct.VP9Frame], ptr %16, i64 0, i64 %18
  call void @vp9_frame_unref(ptr noundef %19)
  br label %20

20:                                               ; preds = %13
  %21 = load i32, ptr %5, align 4, !tbaa !31
  %22 = add nsw i32 %21, 1
  store i32 %22, ptr %5, align 4, !tbaa !31
  br label %9, !llvm.loop !167

23:                                               ; preds = %12
  %24 = load ptr, ptr %3, align 8, !tbaa !29
  %25 = getelementptr inbounds nuw %struct.VP9Context, ptr %24, i32 0, i32 48
  call void @av_refstruct_pool_uninit(ptr noundef %25)
  store i32 0, ptr %4, align 4, !tbaa !31
  br label %26

26:                                               ; preds = %41, %23
  %27 = load i32, ptr %4, align 4, !tbaa !31
  %28 = icmp slt i32 %27, 8
  br i1 %28, label %29, label %44

29:                                               ; preds = %26
  %30 = load ptr, ptr %3, align 8, !tbaa !29
  %31 = getelementptr inbounds nuw %struct.VP9Context, ptr %30, i32 0, i32 0
  %32 = getelementptr inbounds nuw %struct.VP9SharedContext, ptr %31, i32 0, i32 1
  %33 = load i32, ptr %4, align 4, !tbaa !31
  %34 = sext i32 %33 to i64
  %35 = getelementptr inbounds [8 x %struct.ProgressFrame], ptr %32, i64 0, i64 %34
  call void @ff_progress_frame_unref(ptr noundef %35)
  %36 = load ptr, ptr %3, align 8, !tbaa !29
  %37 = getelementptr inbounds nuw %struct.VP9Context, ptr %36, i32 0, i32 27
  %38 = load i32, ptr %4, align 4, !tbaa !31
  %39 = sext i32 %38 to i64
  %40 = getelementptr inbounds [8 x %struct.ProgressFrame], ptr %37, i64 0, i64 %39
  call void @ff_progress_frame_unref(ptr noundef %40)
  br label %41

41:                                               ; preds = %29
  %42 = load i32, ptr %4, align 4, !tbaa !31
  %43 = add nsw i32 %42, 1
  store i32 %43, ptr %4, align 4, !tbaa !31
  br label %26, !llvm.loop !168

44:                                               ; preds = %26
  %45 = load ptr, ptr %3, align 8, !tbaa !29
  call void @free_buffers(ptr noundef %45)
  %46 = load ptr, ptr %3, align 8, !tbaa !29
  %47 = getelementptr inbounds nuw %struct.VP9Context, ptr %46, i32 0, i32 10
  call void @av_freep(ptr noundef %47)
  %48 = load ptr, ptr %3, align 8, !tbaa !29
  call void @ff_pthread_free(ptr noundef %48, ptr noundef @vp9_context_offsets)
  %49 = load ptr, ptr %3, align 8, !tbaa !29
  %50 = getelementptr inbounds nuw %struct.VP9Context, ptr %49, i32 0, i32 1
  call void @av_freep(ptr noundef %50)
  call void @llvm.lifetime.end.p0(i64 4, ptr %4) #11
  call void @llvm.lifetime.end.p0(i64 8, ptr %3) #11
  ret i32 0
}