; Function Attrs: cold nounwind optsize uwtable
define internal noundef i32 @vp9_decode_free(ptr noundef readonly captures(none) %0) #1 {
  %2 = getelementptr inbounds nuw i8, ptr %0, i64 32
  %3 = load ptr, ptr %2, align 8, !tbaa !4
  %4 = getelementptr inbounds nuw i8, ptr %3, i64 432
  br label %9

5:                                                ; preds = %9
  %6 = getelementptr inbounds nuw i8, ptr %3, i64 18488
  tail call void @av_refstruct_unref(ptr noundef nonnull %6) #12
  %7 = getelementptr inbounds nuw i8, ptr %3, i64 304
  %8 = getelementptr inbounds nuw i8, ptr %3, i64 3264
  br label %11

9:                                                ; preds = %1, %9
  %indvars.iv = phi i64 [ 0, %1 ], [ %indvars.iv.next, %9 ]
  %10 = getelementptr inbounds nuw [4 x %struct.VP9Frame], ptr %4, i64 0, i64 %indvars.iv
  tail call fastcc void @vp9_frame_unref(ptr noundef nonnull %10)
  %indvars.iv.next = add nuw nsw i64 %indvars.iv, 1
  %exitcond.not = icmp eq i64 %indvars.iv.next, 3
  br i1 %exitcond.not, label %5, label %9, !llvm.loop !182

11:                                               ; preds = %5, %11
  %indvars.iv19 = phi i64 [ 0, %5 ], [ %indvars.iv.next20, %11 ]
  %12 = getelementptr inbounds nuw [8 x %struct.ProgressFrame], ptr %7, i64 0, i64 %indvars.iv19
  tail call void @ff_progress_frame_unref(ptr noundef nonnull %12) #12
  %13 = getelementptr inbounds nuw [8 x %struct.ProgressFrame], ptr %8, i64 0, i64 %indvars.iv19
  tail call void @ff_progress_frame_unref(ptr noundef nonnull %13) #12
  %indvars.iv.next20 = add nuw nsw i64 %indvars.iv19, 1
  %exitcond22.not = icmp eq i64 %indvars.iv.next20, 8
  br i1 %exitcond22.not, label %14, label %11, !llvm.loop !183

14:                                               ; preds = %11
  %15 = getelementptr inbounds nuw i8, ptr %3, i64 18432
  tail call void @av_freep(ptr noundef nonnull %15) #12
  %16 = getelementptr inbounds nuw i8, ptr %3, i64 3116
  %17 = load i32, ptr %16, align 4, !tbaa !130
  %18 = icmp sgt i32 %17, 0
  br i1 %18, label %.lr.ph.i, label %free_buffers.exit

.lr.ph.i:                                         ; preds = %14
  %19 = getelementptr inbounds nuw i8, ptr %3, i64 656
  br label %20

20:                                               ; preds = %20, %.lr.ph.i
  %indvars.iv.i = phi i64 [ 0, %.lr.ph.i ], [ %indvars.iv.next.i, %20 ]
  %21 = load ptr, ptr %19, align 8, !tbaa !120
  %22 = getelementptr inbounds nuw %struct.VP9TileData, ptr %21, i64 %indvars.iv.i
  %23 = getelementptr inbounds nuw i8, ptr %22, i64 80
  tail call void @av_freep(ptr noundef nonnull %23) #12
  %24 = getelementptr inbounds nuw i8, ptr %22, i64 77040
  tail call void @av_freep(ptr noundef nonnull %24) #12
  %25 = getelementptr inbounds nuw i8, ptr %22, i64 77144
  tail call void @av_freep(ptr noundef nonnull %25) #12
  %indvars.iv.next.i = add nuw nsw i64 %indvars.iv.i, 1
  %26 = load i32, ptr %16, align 4, !tbaa !130
  %27 = sext i32 %26 to i64
  %28 = icmp slt i64 %indvars.iv.next.i, %27
  br i1 %28, label %20, label %free_buffers.exit, !llvm.loop !184

free_buffers.exit:                                ; preds = %20, %14
  %29 = getelementptr inbounds nuw i8, ptr %3, i64 3208
  tail call void @av_freep(ptr noundef nonnull %29) #12
  tail call void @ff_pthread_free(ptr noundef nonnull %3, ptr noundef nonnull @vp9_context_offsets) #12
  %30 = getelementptr inbounds nuw i8, ptr %3, i64 656
  tail call void @av_freep(ptr noundef nonnull %30) #12
  ret i32 0
}